(lp0
(S'elfflags'
p1
ccopy_reg
_reconstructor
p2
(cino.utils
SpaceList
p3
c__builtin__
list
p4
(lp5
S'-Os'
p6
aS'-Wl,--gc-sections'
p7
aS'-mmcu=atmega328p'
p8
atp9
Rp10
tp11
a(S'version.txt'
p12
S'/Applications/Arduino.app/Contents/Resources/Java/lib/version.txt'
p13
tp14
a(S'cc'
p15
S'/Applications/Arduino.app/Contents/Resources/Java/hardware/tools/avr/bin/avr-gcc'
p16
tp17
a(S'cflags'
p18
g2
(g3
g4
(lp19
g8
aS'-ffunction-sections'
p20
aS'-fdata-sections'
p21
aS'-g'
p22
ag6
aS'-w'
p23
aS'-DF_CPU=16000000L'
p24
aS'-DARDUINO=100'
p25
aS'-I/Applications/Arduino.app/Contents/Resources/Java/hardware/arduino/cores/arduino'
p26
aS'-I/Applications/Arduino.app/Contents/Resources/Java/hardware/arduino/variants/standard'
p27
atp28
Rp29
tp30
a(S'build_dir'
p31
S'.build/uno'
p32
tp33
a(S'arduino_core_dir'
p34
S'/Applications/Arduino.app/Contents/Resources/Java/hardware/arduino/cores/arduino'
p35
tp36
a(S'boards.txt'
p37
S'/Applications/Arduino.app/Contents/Resources/Java/hardware/arduino/boards.txt'
p38
tp39
a(S'cxxflags'
p40
g2
(g3
g4
(lp41
S'-fno-exceptions'
p42
atp43
Rp44
tp45
a(S'arduino_variants_dir'
p46
S'/Applications/Arduino.app/Contents/Resources/Java/hardware/arduino/variants'
p47
tp48
a(S'ar'
p49
S'/Applications/Arduino.app/Contents/Resources/Java/hardware/tools/avr/bin/avr-ar'
p50
tp51
a(S'names'
p52
(dp53
S'cpp'
p54
S'%s.cpp'
p55
sS'obj'
p56
S'%s.o'
p57
sS'deps'
p58
S'%s.d'
p59
sS'lib'
p60
S'lib%s.a'
p61
stp62
a(S'deps'
p63
g2
(g3
g4
(lp64
tp65
Rp66
tp67
a(S'arduino_libraries_dir'
p68
S'/Applications/Arduino.app/Contents/Resources/Java/libraries'
p69
tp70
a(S'arduino_lib_version'
p71
g2
(cino.environment
Version
p72
c__builtin__
tuple
p73
(I1
I0
tp74
tp75
Rp76
tp77
a(S'objcopy'
p78
S'/Applications/Arduino.app/Contents/Resources/Java/hardware/tools/avr/bin/avr-objcopy'
p79
tp80
a(S'board_models'
p81
cino.environment
BoardModels
p82
((lp83
(lp84
S'uno'
p85
a(dp86
S'bootloader'
p87
(dp88
S'extended_fuses'
p89
S'0x05'
p90
sS'high_fuses'
p91
S'0xde'
p92
sS'low_fuses'
p93
S'0xff'
p94
sS'lock_bits'
p95
S'0x0F'
p96
sS'file'
p97
S'optiboot_atmega328.hex'
p98
sS'path'
p99
S'optiboot'
p100
sS'unlock_bits'
p101
S'0x3F'
p102
ssS'upload'
p103
(dp104
S'protocol'
p105
S'arduino'
p106
sS'maximum_size'
p107
S'32256'
p108
sS'speed'
p109
S'115200'
p110
ssS'build'
p111
(dp112
S'core'
p113
S'arduino'
p114
sS'mcu'
p115
S'atmega328p'
p116
sS'f_cpu'
p117
S'16000000L'
p118
sS'variant'
p119
S'standard'
p120
ssS'name'
p121
S'Arduino Uno'
p122
saa(lp123
S'atmega328'
p124
a(dp125
S'bootloader'
p126
(dp127
S'extended_fuses'
p128
S'0x05'
p129
sS'high_fuses'
p130
S'0xDA'
p131
sS'low_fuses'
p132
S'0xFF'
p133
sS'lock_bits'
p134
S'0x0F'
p135
sS'file'
p136
S'ATmegaBOOT_168_atmega328.hex'
p137
sS'path'
p138
S'atmega'
p139
sS'unlock_bits'
p140
S'0x3F'
p141
ssS'upload'
p142
(dp143
S'protocol'
p144
S'arduino'
p145
sS'maximum_size'
p146
S'30720'
p147
sS'speed'
p148
S'57600'
p149
ssS'build'
p150
(dp151
S'core'
p152
S'arduino'
p153
sS'mcu'
p154
S'atmega328p'
p155
sS'f_cpu'
p156
S'16000000L'
p157
sS'variant'
p158
S'standard'
p159
ssS'name'
p160
S'Arduino Duemilanove w/ ATmega328'
p161
saa(lp162
S'diecimila'
p163
a(dp164
S'bootloader'
p165
(dp166
S'extended_fuses'
p167
S'0x00'
p168
sS'high_fuses'
p169
S'0xdd'
p170
sS'low_fuses'
p171
S'0xff'
p172
sS'lock_bits'
p173
S'0x0F'
p174
sS'file'
p175
S'ATmegaBOOT_168_diecimila.hex'
p176
sS'path'
p177
S'atmega'
p178
sS'unlock_bits'
p179
S'0x3F'
p180
ssS'upload'
p181
(dp182
S'protocol'
p183
S'arduino'
p184
sS'maximum_size'
p185
S'14336'
p186
sS'speed'
p187
S'19200'
p188
ssS'build'
p189
(dp190
S'core'
p191
S'arduino'
p192
sS'mcu'
p193
S'atmega168'
p194
sS'f_cpu'
p195
S'16000000L'
p196
sS'variant'
p197
S'standard'
p198
ssS'name'
p199
S'Arduino Diecimila or Duemilanove w/ ATmega168'
p200
saa(lp201
S'nano328'
p202
a(dp203
S'bootloader'
p204
(dp205
S'extended_fuses'
p206
S'0x05'
p207
sS'high_fuses'
p208
S'0xDA'
p209
sS'low_fuses'
p210
S'0xFF'
p211
sS'lock_bits'
p212
S'0x0F'
p213
sS'file'
p214
S'ATmegaBOOT_168_atmega328.hex'
p215
sS'path'
p216
S'atmega'
p217
sS'unlock_bits'
p218
S'0x3F'
p219
ssS'upload'
p220
(dp221
S'protocol'
p222
S'arduino'
p223
sS'maximum_size'
p224
S'30720'
p225
sS'speed'
p226
S'57600'
p227
ssS'build'
p228
(dp229
S'core'
p230
S'arduino'
p231
sS'mcu'
p232
S'atmega328p'
p233
sS'f_cpu'
p234
S'16000000L'
p235
sS'variant'
p236
S'eightanaloginputs'
p237
ssS'name'
p238
S'Arduino Nano w/ ATmega328'
p239
saa(lp240
S'nano'
p241
a(dp242
S'bootloader'
p243
(dp244
S'extended_fuses'
p245
S'0x00'
p246
sS'high_fuses'
p247
S'0xdd'
p248
sS'low_fuses'
p249
S'0xff'
p250
sS'lock_bits'
p251
S'0x0F'
p252
sS'file'
p253
S'ATmegaBOOT_168_diecimila.hex'
p254
sS'path'
p255
S'atmega'
p256
sS'unlock_bits'
p257
S'0x3F'
p258
ssS'upload'
p259
(dp260
S'protocol'
p261
S'arduino'
p262
sS'maximum_size'
p263
S'14336'
p264
sS'speed'
p265
S'19200'
p266
ssS'build'
p267
(dp268
S'core'
p269
S'arduino'
p270
sS'mcu'
p271
S'atmega168'
p272
sS'f_cpu'
p273
S'16000000L'
p274
sS'variant'
p275
S'eightanaloginputs'
p276
ssS'name'
p277
S'Arduino Nano w/ ATmega168'
p278
saa(lp279
S'mega2560'
p280
a(dp281
S'bootloader'
p282
(dp283
S'extended_fuses'
p284
S'0xFD'
p285
sS'high_fuses'
p286
S'0xD8'
p287
sS'low_fuses'
p288
S'0xFF'
p289
sS'lock_bits'
p290
S'0x0F'
p291
sS'file'
p292
S'stk500boot_v2_mega2560.hex'
p293
sS'path'
p294
S'stk500v2'
p295
sS'unlock_bits'
p296
S'0x3F'
p297
ssS'upload'
p298
(dp299
S'protocol'
p300
S'wiring'
p301
sS'maximum_size'
p302
S'258048'
p303
sS'speed'
p304
S'115200'
p305
ssS'build'
p306
(dp307
S'core'
p308
S'arduino'
p309
sS'mcu'
p310
S'atmega2560'
p311
sS'f_cpu'
p312
S'16000000L'
p313
sS'variant'
p314
S'mega'
p315
ssS'name'
p316
S'Arduino Mega 2560 or Mega ADK'
p317
saa(lp318
S'mega'
p319
a(dp320
S'bootloader'
p321
(dp322
S'extended_fuses'
p323
S'0xF5'
p324
sS'high_fuses'
p325
S'0xDA'
p326
sS'low_fuses'
p327
S'0xFF'
p328
sS'lock_bits'
p329
S'0x0F'
p330
sS'file'
p331
S'ATmegaBOOT_168_atmega1280.hex'
p332
sS'path'
p333
S'atmega'
p334
sS'unlock_bits'
p335
S'0x3F'
p336
ssS'upload'
p337
(dp338
S'protocol'
p339
S'arduino'
p340
sS'maximum_size'
p341
S'126976'
p342
sS'speed'
p343
S'57600'
p344
ssS'build'
p345
(dp346
S'core'
p347
S'arduino'
p348
sS'mcu'
p349
S'atmega1280'
p350
sS'f_cpu'
p351
S'16000000L'
p352
sS'variant'
p353
S'mega'
p354
ssS'name'
p355
S'Arduino Mega (ATmega1280)'
p356
saa(lp357
S'leonardo'
p358
a(dp359
S'bootloader'
p360
(dp361
S'extended_fuses'
p362
S'0xcb'
p363
sS'high_fuses'
p364
S'0xd8'
p365
sS'low_fuses'
p366
S'0xff'
p367
sS'lock_bits'
p368
S'0x2F'
p369
sS'file'
p370
S'Caterina-Leonardo.hex'
p371
sS'path'
p372
S'caterina'
p373
sS'unlock_bits'
p374
S'0x3F'
p375
ssS'upload'
p376
(dp377
S'protocol'
p378
S'avr109'
p379
sS'maximum_size'
p380
S'28672'
p381
sS'speed'
p382
S'57600'
p383
sS'disable_flushing'
p384
S'true'
p385
ssS'build'
p386
(dp387
S'core'
p388
S'arduino'
p389
sS'f_cpu'
p390
S'16000000L'
p391
sS'vid'
p392
S'0x2341'
p393
sS'pid'
p394
S'0x8036'
p395
sS'variant'
p396
S'leonardo'
p397
sS'mcu'
p398
S'atmega32u4'
p399
ssS'name'
p400
S'Arduino Leonardo'
p401
saa(lp402
S'esplora'
p403
a(dp404
S'bootloader'
p405
(dp406
S'extended_fuses'
p407
S'0xcb'
p408
sS'high_fuses'
p409
S'0xd8'
p410
sS'low_fuses'
p411
S'0xff'
p412
sS'lock_bits'
p413
S'0x2F'
p414
sS'file'
p415
S'Caterina-Esplora.hex'
p416
sS'path'
p417
S'caterina'
p418
sS'unlock_bits'
p419
S'0x3F'
p420
ssS'upload'
p421
(dp422
S'protocol'
p423
S'avr109'
p424
sS'maximum_size'
p425
S'28672'
p426
sS'speed'
p427
S'57600'
p428
sS'disable_flushing'
p429
S'true'
p430
ssS'build'
p431
(dp432
S'core'
p433
S'arduino'
p434
sS'f_cpu'
p435
S'16000000L'
p436
sS'vid'
p437
S'0x2341'
p438
sS'pid'
p439
S'0x803C'
p440
sS'variant'
p441
S'leonardo'
p442
sS'mcu'
p443
S'atmega32u4'
p444
ssS'name'
p445
S'Arduino Esplora'
p446
saa(lp447
S'micro'
p448
a(dp449
S'bootloader'
p450
(dp451
S'extended_fuses'
p452
S'0xcb'
p453
sS'high_fuses'
p454
S'0xd8'
p455
sS'low_fuses'
p456
S'0xff'
p457
sS'lock_bits'
p458
S'0x2F'
p459
sS'file'
p460
S'Caterina-Micro.hex'
p461
sS'path'
p462
S'caterina'
p463
sS'unlock_bits'
p464
S'0x3F'
p465
ssS'upload'
p466
(dp467
S'protocol'
p468
S'avr109'
p469
sS'maximum_size'
p470
S'28672'
p471
sS'speed'
p472
S'57600'
p473
sS'disable_flushing'
p474
S'true'
p475
ssS'build'
p476
(dp477
S'core'
p478
S'arduino'
p479
sS'f_cpu'
p480
S'16000000L'
p481
sS'vid'
p482
S'0x2341'
p483
sS'pid'
p484
S'0x8037'
p485
sS'variant'
p486
S'micro'
p487
sS'mcu'
p488
S'atmega32u4'
p489
ssS'name'
p490
S'Arduino Micro'
p491
saa(lp492
S'mini328'
p493
a(dp494
S'bootloader'
p495
(dp496
S'extended_fuses'
p497
S'0x05'
p498
sS'high_fuses'
p499
S'0xd8'
p500
sS'low_fuses'
p501
S'0xff'
p502
sS'lock_bits'
p503
S'0x0F'
p504
sS'file'
p505
S'optiboot_atmega328-Mini.hex'
p506
sS'path'
p507
S'optiboot'
p508
sS'unlock_bits'
p509
S'0x3F'
p510
ssS'upload'
p511
(dp512
S'protocol'
p513
S'arduino'
p514
sS'maximum_size'
p515
S'28672'
p516
sS'speed'
p517
S'115200'
p518
ssS'build'
p519
(dp520
S'core'
p521
S'arduino'
p522
sS'mcu'
p523
S'atmega328p'
p524
sS'f_cpu'
p525
S'16000000L'
p526
sS'variant'
p527
S'eightanaloginputs'
p528
ssS'name'
p529
S'Arduino Mini w/ ATmega328'
p530
saa(lp531
S'mini'
p532
a(dp533
S'bootloader'
p534
(dp535
S'extended_fuses'
p536
S'0x00'
p537
sS'high_fuses'
p538
S'0xdd'
p539
sS'low_fuses'
p540
S'0xff'
p541
sS'lock_bits'
p542
S'0x0F'
p543
sS'file'
p544
S'ATmegaBOOT_168_ng.hex'
p545
sS'path'
p546
S'atmega'
p547
sS'unlock_bits'
p548
S'0x3F'
p549
ssS'upload'
p550
(dp551
S'protocol'
p552
S'arduino'
p553
sS'maximum_size'
p554
S'14336'
p555
sS'speed'
p556
S'19200'
p557
ssS'build'
p558
(dp559
S'core'
p560
S'arduino'
p561
sS'mcu'
p562
S'atmega168'
p563
sS'f_cpu'
p564
S'16000000L'
p565
sS'variant'
p566
S'eightanaloginputs'
p567
ssS'name'
p568
S'Arduino Mini w/ ATmega168'
p569
saa(lp570
S'ethernet'
p571
a(dp572
S'bootloader'
p573
(dp574
S'extended_fuses'
p575
S'0x05'
p576
sS'high_fuses'
p577
S'0xde'
p578
sS'low_fuses'
p579
S'0xff'
p580
sS'lock_bits'
p581
S'0x0F'
p582
sS'file'
p583
S'optiboot_atmega328.hex'
p584
sS'path'
p585
S'optiboot'
p586
sS'unlock_bits'
p587
S'0x3F'
p588
ssS'upload'
p589
(dp590
S'protocol'
p591
S'arduino'
p592
sS'maximum_size'
p593
S'32256'
p594
sS'speed'
p595
S'115200'
p596
ssS'build'
p597
(dp598
S'variant'
p599
S'standard'
p600
sS'mcu'
p601
S'atmega328p'
p602
sS'f_cpu'
p603
S'16000000L'
p604
sS'core'
p605
S'arduino'
p606
ssS'name'
p607
S'Arduino Ethernet'
p608
saa(lp609
S'fio'
p610
a(dp611
S'bootloader'
p612
(dp613
S'extended_fuses'
p614
S'0x05'
p615
sS'high_fuses'
p616
S'0xDA'
p617
sS'low_fuses'
p618
S'0xFF'
p619
sS'lock_bits'
p620
S'0x0F'
p621
sS'file'
p622
S'ATmegaBOOT_168_atmega328_pro_8MHz.hex'
p623
sS'path'
p624
S'arduino:atmega'
p625
sS'unlock_bits'
p626
S'0x3F'
p627
ssS'upload'
p628
(dp629
S'protocol'
p630
S'arduino'
p631
sS'maximum_size'
p632
S'30720'
p633
sS'speed'
p634
S'57600'
p635
ssS'build'
p636
(dp637
S'core'
p638
S'arduino'
p639
sS'mcu'
p640
S'atmega328p'
p641
sS'f_cpu'
p642
S'8000000L'
p643
sS'variant'
p644
S'eightanaloginputs'
p645
ssS'name'
p646
S'Arduino Fio'
p647
saa(lp648
S'bt328'
p649
a(dp650
S'bootloader'
p651
(dp652
S'extended_fuses'
p653
S'0x05'
p654
sS'high_fuses'
p655
S'0xd8'
p656
sS'low_fuses'
p657
S'0xff'
p658
sS'lock_bits'
p659
S'0x0F'
p660
sS'file'
p661
S'ATmegaBOOT_168_atmega328_bt.hex'
p662
sS'path'
p663
S'bt'
p664
sS'unlock_bits'
p665
S'0x3F'
p666
ssS'upload'
p667
(dp668
S'protocol'
p669
S'arduino'
p670
sS'maximum_size'
p671
S'28672'
p672
sS'speed'
p673
S'19200'
p674
sS'disable_flushing'
p675
S'true'
p676
ssS'build'
p677
(dp678
S'core'
p679
S'arduino'
p680
sS'mcu'
p681
S'atmega328p'
p682
sS'f_cpu'
p683
S'16000000L'
p684
sS'variant'
p685
S'eightanaloginputs'
p686
ssS'name'
p687
S'Arduino BT w/ ATmega328'
p688
saa(lp689
S'bt'
p690
a(dp691
S'bootloader'
p692
(dp693
S'extended_fuses'
p694
S'0x00'
p695
sS'high_fuses'
p696
S'0xdd'
p697
sS'low_fuses'
p698
S'0xff'
p699
sS'lock_bits'
p700
S'0x0F'
p701
sS'file'
p702
S'ATmegaBOOT_168.hex'
p703
sS'path'
p704
S'bt'
p705
sS'unlock_bits'
p706
S'0x3F'
p707
ssS'upload'
p708
(dp709
S'protocol'
p710
S'arduino'
p711
sS'maximum_size'
p712
S'14336'
p713
sS'speed'
p714
S'19200'
p715
sS'disable_flushing'
p716
S'true'
p717
ssS'build'
p718
(dp719
S'core'
p720
S'arduino'
p721
sS'mcu'
p722
S'atmega168'
p723
sS'f_cpu'
p724
S'16000000L'
p725
sS'variant'
p726
S'eightanaloginputs'
p727
ssS'name'
p728
S'Arduino BT w/ ATmega168'
p729
saa(lp730
S'LilyPadUSB'
p731
a(dp732
S'bootloader'
p733
(dp734
S'extended_fuses'
p735
S'0xce'
p736
sS'high_fuses'
p737
S'0xd8'
p738
sS'low_fuses'
p739
S'0xff'
p740
sS'lock_bits'
p741
S'0x2F'
p742
sS'file'
p743
S'Caterina-LilyPadUSB.hex'
p744
sS'path'
p745
S'caterina-LilyPadUSB'
p746
sS'unlock_bits'
p747
S'0x3F'
p748
ssS'upload'
p749
(dp750
S'protocol'
p751
S'avr109'
p752
sS'maximum_size'
p753
S'28672'
p754
sS'speed'
p755
S'57600'
p756
sS'disable_flushing'
p757
S'true'
p758
ssS'build'
p759
(dp760
S'core'
p761
S'arduino'
p762
sS'f_cpu'
p763
S'8000000L'
p764
sS'vid'
p765
S'0x1B4F'
p766
sS'pid'
p767
S'0x9208'
p768
sS'variant'
p769
S'leonardo'
p770
sS'mcu'
p771
S'atmega32u4'
p772
ssS'name'
p773
S'LilyPad Arduino USB'
p774
saa(lp775
S'lilypad328'
p776
a(dp777
S'bootloader'
p778
(dp779
S'extended_fuses'
p780
S'0x05'
p781
sS'high_fuses'
p782
S'0xDA'
p783
sS'low_fuses'
p784
S'0xFF'
p785
sS'lock_bits'
p786
S'0x0F'
p787
sS'file'
p788
S'ATmegaBOOT_168_atmega328_pro_8MHz.hex'
p789
sS'path'
p790
S'atmega'
p791
sS'unlock_bits'
p792
S'0x3F'
p793
ssS'upload'
p794
(dp795
S'protocol'
p796
S'arduino'
p797
sS'maximum_size'
p798
S'30720'
p799
sS'speed'
p800
S'57600'
p801
ssS'build'
p802
(dp803
S'core'
p804
S'arduino'
p805
sS'mcu'
p806
S'atmega328p'
p807
sS'f_cpu'
p808
S'8000000L'
p809
sS'variant'
p810
S'standard'
p811
ssS'name'
p812
S'LilyPad Arduino w/ ATmega328'
p813
saa(lp814
S'lilypad'
p815
a(dp816
S'bootloader'
p817
(dp818
S'extended_fuses'
p819
S'0x00'
p820
sS'high_fuses'
p821
S'0xdd'
p822
sS'low_fuses'
p823
S'0xe2'
p824
sS'lock_bits'
p825
S'0x0F'
p826
sS'file'
p827
S'LilyPadBOOT_168.hex'
p828
sS'path'
p829
S'lilypad'
p830
sS'unlock_bits'
p831
S'0x3F'
p832
ssS'upload'
p833
(dp834
S'protocol'
p835
S'arduino'
p836
sS'maximum_size'
p837
S'14336'
p838
sS'speed'
p839
S'19200'
p840
ssS'build'
p841
(dp842
S'core'
p843
S'arduino'
p844
sS'mcu'
p845
S'atmega168'
p846
sS'f_cpu'
p847
S'8000000L'
p848
sS'variant'
p849
S'standard'
p850
ssS'name'
p851
S'LilyPad Arduino w/ ATmega168'
p852
saa(lp853
S'pro5v328'
p854
a(dp855
S'bootloader'
p856
(dp857
S'extended_fuses'
p858
S'0x05'
p859
sS'high_fuses'
p860
S'0xDA'
p861
sS'low_fuses'
p862
S'0xFF'
p863
sS'lock_bits'
p864
S'0x0F'
p865
sS'file'
p866
S'ATmegaBOOT_168_atmega328.hex'
p867
sS'path'
p868
S'atmega'
p869
sS'unlock_bits'
p870
S'0x3F'
p871
ssS'upload'
p872
(dp873
S'protocol'
p874
S'arduino'
p875
sS'maximum_size'
p876
S'30720'
p877
sS'speed'
p878
S'57600'
p879
ssS'build'
p880
(dp881
S'core'
p882
S'arduino'
p883
sS'mcu'
p884
S'atmega328p'
p885
sS'f_cpu'
p886
S'16000000L'
p887
sS'variant'
p888
S'standard'
p889
ssS'name'
p890
S'Arduino Pro or Pro Mini (5V, 16 MHz) w/ ATmega328'
p891
saa(lp892
S'pro5v'
p893
a(dp894
S'bootloader'
p895
(dp896
S'extended_fuses'
p897
S'0x00'
p898
sS'high_fuses'
p899
S'0xdd'
p900
sS'low_fuses'
p901
S'0xff'
p902
sS'lock_bits'
p903
S'0x0F'
p904
sS'file'
p905
S'ATmegaBOOT_168_diecimila.hex'
p906
sS'path'
p907
S'atmega'
p908
sS'unlock_bits'
p909
S'0x3F'
p910
ssS'upload'
p911
(dp912
S'protocol'
p913
S'arduino'
p914
sS'maximum_size'
p915
S'14336'
p916
sS'speed'
p917
S'19200'
p918
ssS'build'
p919
(dp920
S'core'
p921
S'arduino'
p922
sS'mcu'
p923
S'atmega168'
p924
sS'f_cpu'
p925
S'16000000L'
p926
sS'variant'
p927
S'standard'
p928
ssS'name'
p929
S'Arduino Pro or Pro Mini (5V, 16 MHz) w/ ATmega168'
p930
saa(lp931
S'pro328'
p932
a(dp933
S'bootloader'
p934
(dp935
S'extended_fuses'
p936
S'0x05'
p937
sS'high_fuses'
p938
S'0xDA'
p939
sS'low_fuses'
p940
S'0xFF'
p941
sS'lock_bits'
p942
S'0x0F'
p943
sS'file'
p944
S'ATmegaBOOT_168_atmega328_pro_8MHz.hex'
p945
sS'path'
p946
S'atmega'
p947
sS'unlock_bits'
p948
S'0x3F'
p949
ssS'upload'
p950
(dp951
S'protocol'
p952
S'arduino'
p953
sS'maximum_size'
p954
S'30720'
p955
sS'speed'
p956
S'57600'
p957
ssS'build'
p958
(dp959
S'core'
p960
S'arduino'
p961
sS'mcu'
p962
S'atmega328p'
p963
sS'f_cpu'
p964
S'8000000L'
p965
sS'variant'
p966
S'standard'
p967
ssS'name'
p968
S'Arduino Pro or Pro Mini (3.3V, 8 MHz) w/ ATmega328'
p969
saa(lp970
S'pro'
p971
a(dp972
S'bootloader'
p973
(dp974
S'extended_fuses'
p975
S'0x00'
p976
sS'high_fuses'
p977
S'0xdd'
p978
sS'low_fuses'
p979
S'0xc6'
p980
sS'lock_bits'
p981
S'0x0F'
p982
sS'file'
p983
S'ATmegaBOOT_168_pro_8MHz.hex'
p984
sS'path'
p985
S'atmega'
p986
sS'unlock_bits'
p987
S'0x3F'
p988
ssS'upload'
p989
(dp990
S'protocol'
p991
S'arduino'
p992
sS'maximum_size'
p993
S'14336'
p994
sS'speed'
p995
S'19200'
p996
ssS'build'
p997
(dp998
S'core'
p999
S'arduino'
p1000
sS'mcu'
p1001
S'atmega168'
p1002
sS'f_cpu'
p1003
S'8000000L'
p1004
sS'variant'
p1005
S'standard'
p1006
ssS'name'
p1007
S'Arduino Pro or Pro Mini (3.3V, 8 MHz) w/ ATmega168'
p1008
saa(lp1009
S'atmega168'
p1010
a(dp1011
S'bootloader'
p1012
(dp1013
S'extended_fuses'
p1014
S'0x00'
p1015
sS'high_fuses'
p1016
S'0xdd'
p1017
sS'low_fuses'
p1018
S'0xff'
p1019
sS'lock_bits'
p1020
S'0x0F'
p1021
sS'file'
p1022
S'ATmegaBOOT_168_ng.hex'
p1023
sS'path'
p1024
S'atmega'
p1025
sS'unlock_bits'
p1026
S'0x3F'
p1027
ssS'upload'
p1028
(dp1029
S'protocol'
p1030
S'arduino'
p1031
sS'maximum_size'
p1032
S'14336'
p1033
sS'speed'
p1034
S'19200'
p1035
ssS'build'
p1036
(dp1037
S'core'
p1038
S'arduino'
p1039
sS'mcu'
p1040
S'atmega168'
p1041
sS'f_cpu'
p1042
S'16000000L'
p1043
sS'variant'
p1044
S'standard'
p1045
ssS'name'
p1046
S'Arduino NG or older w/ ATmega168'
p1047
saa(lp1048
S'atmega8'
p1049
a(dp1050
S'bootloader'
p1051
(dp1052
S'high_fuses'
p1053
S'0xca'
p1054
sS'low_fuses'
p1055
S'0xdf'
p1056
sS'lock_bits'
p1057
S'0x0F'
p1058
sS'file'
p1059
S'ATmegaBOOT-prod-firmware-2009-11-07.hex'
p1060
sS'path'
p1061
S'atmega8'
p1062
sS'unlock_bits'
p1063
S'0x3F'
p1064
ssS'upload'
p1065
(dp1066
S'protocol'
p1067
S'arduino'
p1068
sS'maximum_size'
p1069
S'7168'
p1070
sS'speed'
p1071
S'19200'
p1072
ssS'build'
p1073
(dp1074
S'core'
p1075
S'arduino'
p1076
sS'mcu'
p1077
S'atmega8'
p1078
sS'f_cpu'
p1079
S'16000000L'
p1080
sS'variant'
p1081
S'standard'
p1082
ssS'name'
p1083
S'Arduino NG or older w/ ATmega8'
p1084
saatp1085
Rp1086
(dp1087
S'default'
p1088
S'uno'
p1089
sbtp1090
a(S'cxx'
p1091
S'/Applications/Arduino.app/Contents/Resources/Java/hardware/tools/avr/bin/avr-g++'
p1092
tp1093
a.