(lp0
(S'elfflags'
p1
ccopy_reg
_reconstructor
p2
(cino.utils
SpaceList
p3
c__builtin__
list
p4
(lp5
S'-Os'
p6
aS'-Wl,--gc-sections'
p7
aS'-mmcu=atmega2560'
p8
atp9
Rp10
tp11
a(S'version.txt'
p12
S'/Applications/Arduino.app/Contents/Resources/Java/lib/version.txt'
p13
tp14
a(S'used_libs'
p15
(lp16
S'lib/qp'
p17
aS'lib/AngularSensor'
p18
aS'lib/StepperControl'
p19
aS'lib/PTP_2.0'
p20
aS'lib/USBHost'
p21
aS'/Applications/Arduino.app/Contents/Resources/Java/hardware/arduino/cores/arduino'
p22
atp23
a(S'cc'
p24
S'/Applications/Arduino.app/Contents/Resources/Java/hardware/tools/avr/bin/avr-gcc'
p25
tp26
a(S'build_dir'
p27
S'.build/mega2560'
p28
tp29
a(S'arduino_core_dir'
p30
g22
tp31
a(S'boards.txt'
p32
S'/Applications/Arduino.app/Contents/Resources/Java/hardware/arduino/boards.txt'
p33
tp34
a(S'cxxflags'
p35
g2
(g3
g4
(lp36
S'-fno-exceptions'
p37
atp38
Rp39
tp40
a(S'arduino_variants_dir'
p41
S'/Applications/Arduino.app/Contents/Resources/Java/hardware/arduino/variants'
p42
tp43
a(S'deps'
p44
g2
(g3
g4
(lp45
S'.build/mega2560/src/dependencies.d'
p46
aS'.build/mega2560/arduino/dependencies.d'
p47
aS'.build/mega2560/qp/dependencies.d'
p48
aS'.build/mega2560/USBHost/dependencies.d'
p49
aS'.build/mega2560/AngularSensor/dependencies.d'
p50
aS'.build/mega2560/StepperControl/dependencies.d'
p51
aS'.build/mega2560/PTP_2.0/dependencies.d'
p52
atp53
Rp54
tp55
a(S'ar'
p56
S'/Applications/Arduino.app/Contents/Resources/Java/hardware/tools/avr/bin/avr-ar'
p57
tp58
a(S'names'
p59
(dp60
S'cpp'
p61
S'%s.cpp'
p62
sS'obj'
p63
S'%s.o'
p64
sg44
S'%s.d'
p65
sS'lib'
p66
S'lib%s.a'
p67
stp68
a(S'cflags'
p69
g2
(g3
g4
(lp70
g8
aS'-ffunction-sections'
p71
aS'-fdata-sections'
p72
aS'-g'
p73
ag6
aS'-w'
p74
aS'-DF_CPU=16000000L'
p75
aS'-DARDUINO=100'
p76
aS'-I/Applications/Arduino.app/Contents/Resources/Java/hardware/arduino/cores/arduino'
p77
aS'-I/Applications/Arduino.app/Contents/Resources/Java/hardware/arduino/variants/mega'
p78
aS'-Ilib/qp'
p79
aS'-Ilib/AngularSensor'
p80
aS'-Ilib/StepperControl'
p81
aS'-Ilib/PTP_2.0'
p82
aS'-Ilib/USBHost'
p83
aS'-I/Applications/Arduino.app/Contents/Resources/Java/hardware/arduino/cores/arduino'
p84
atp85
Rp86
tp87
a(S'arduino_libraries_dir'
p88
S'/Applications/Arduino.app/Contents/Resources/Java/libraries'
p89
tp90
a(S'arduino_lib_version'
p91
g2
(cino.environment
Version
p92
c__builtin__
tuple
p93
(I1
I0
tp94
tp95
Rp96
tp97
a(S'objcopy'
p98
S'/Applications/Arduino.app/Contents/Resources/Java/hardware/tools/avr/bin/avr-objcopy'
p99
tp100
a(S'board_models'
p101
cino.environment
BoardModels
p102
((lp103
(lp104
S'uno'
p105
a(dp106
S'build'
p107
(dp108
S'core'
p109
S'arduino'
p110
sS'mcu'
p111
S'atmega328p'
p112
sS'f_cpu'
p113
S'16000000L'
p114
sS'variant'
p115
S'standard'
p116
ssS'bootloader'
p117
(dp118
S'extended_fuses'
p119
S'0x05'
p120
sS'high_fuses'
p121
S'0xde'
p122
sS'low_fuses'
p123
S'0xff'
p124
sS'lock_bits'
p125
S'0x0F'
p126
sS'file'
p127
S'optiboot_atmega328.hex'
p128
sS'path'
p129
S'optiboot'
p130
sS'unlock_bits'
p131
S'0x3F'
p132
ssS'name'
p133
S'Arduino Uno'
p134
sS'upload'
p135
(dp136
S'speed'
p137
S'115200'
p138
sS'maximum_size'
p139
S'32256'
p140
sS'protocol'
p141
S'arduino'
p142
ssaa(lp143
S'atmega328'
p144
a(dp145
S'build'
p146
(dp147
S'core'
p148
S'arduino'
p149
sS'mcu'
p150
S'atmega328p'
p151
sS'f_cpu'
p152
S'16000000L'
p153
sS'variant'
p154
S'standard'
p155
ssS'bootloader'
p156
(dp157
S'extended_fuses'
p158
S'0x05'
p159
sS'high_fuses'
p160
S'0xDA'
p161
sS'low_fuses'
p162
S'0xFF'
p163
sS'lock_bits'
p164
S'0x0F'
p165
sS'file'
p166
S'ATmegaBOOT_168_atmega328.hex'
p167
sS'path'
p168
S'atmega'
p169
sS'unlock_bits'
p170
S'0x3F'
p171
ssS'name'
p172
S'Arduino Duemilanove w/ ATmega328'
p173
sS'upload'
p174
(dp175
S'speed'
p176
S'57600'
p177
sS'maximum_size'
p178
S'30720'
p179
sS'protocol'
p180
S'arduino'
p181
ssaa(lp182
S'diecimila'
p183
a(dp184
S'build'
p185
(dp186
S'core'
p187
S'arduino'
p188
sS'mcu'
p189
S'atmega168'
p190
sS'f_cpu'
p191
S'16000000L'
p192
sS'variant'
p193
S'standard'
p194
ssS'bootloader'
p195
(dp196
S'extended_fuses'
p197
S'0x00'
p198
sS'high_fuses'
p199
S'0xdd'
p200
sS'low_fuses'
p201
S'0xff'
p202
sS'lock_bits'
p203
S'0x0F'
p204
sS'file'
p205
S'ATmegaBOOT_168_diecimila.hex'
p206
sS'path'
p207
S'atmega'
p208
sS'unlock_bits'
p209
S'0x3F'
p210
ssS'name'
p211
S'Arduino Diecimila or Duemilanove w/ ATmega168'
p212
sS'upload'
p213
(dp214
S'speed'
p215
S'19200'
p216
sS'maximum_size'
p217
S'14336'
p218
sS'protocol'
p219
S'arduino'
p220
ssaa(lp221
S'nano328'
p222
a(dp223
S'build'
p224
(dp225
S'core'
p226
S'arduino'
p227
sS'mcu'
p228
S'atmega328p'
p229
sS'f_cpu'
p230
S'16000000L'
p231
sS'variant'
p232
S'eightanaloginputs'
p233
ssS'bootloader'
p234
(dp235
S'extended_fuses'
p236
S'0x05'
p237
sS'high_fuses'
p238
S'0xDA'
p239
sS'low_fuses'
p240
S'0xFF'
p241
sS'lock_bits'
p242
S'0x0F'
p243
sS'file'
p244
S'ATmegaBOOT_168_atmega328.hex'
p245
sS'path'
p246
S'atmega'
p247
sS'unlock_bits'
p248
S'0x3F'
p249
ssS'name'
p250
S'Arduino Nano w/ ATmega328'
p251
sS'upload'
p252
(dp253
S'speed'
p254
S'57600'
p255
sS'maximum_size'
p256
S'30720'
p257
sS'protocol'
p258
S'arduino'
p259
ssaa(lp260
S'nano'
p261
a(dp262
S'build'
p263
(dp264
S'core'
p265
S'arduino'
p266
sS'mcu'
p267
S'atmega168'
p268
sS'f_cpu'
p269
S'16000000L'
p270
sS'variant'
p271
S'eightanaloginputs'
p272
ssS'bootloader'
p273
(dp274
S'extended_fuses'
p275
S'0x00'
p276
sS'high_fuses'
p277
S'0xdd'
p278
sS'low_fuses'
p279
S'0xff'
p280
sS'lock_bits'
p281
S'0x0F'
p282
sS'file'
p283
S'ATmegaBOOT_168_diecimila.hex'
p284
sS'path'
p285
S'atmega'
p286
sS'unlock_bits'
p287
S'0x3F'
p288
ssS'name'
p289
S'Arduino Nano w/ ATmega168'
p290
sS'upload'
p291
(dp292
S'speed'
p293
S'19200'
p294
sS'maximum_size'
p295
S'14336'
p296
sS'protocol'
p297
S'arduino'
p298
ssaa(lp299
S'mega2560'
p300
a(dp301
S'build'
p302
(dp303
S'core'
p304
S'arduino'
p305
sS'mcu'
p306
S'atmega2560'
p307
sS'f_cpu'
p308
S'16000000L'
p309
sS'variant'
p310
S'mega'
p311
ssS'bootloader'
p312
(dp313
S'extended_fuses'
p314
S'0xFD'
p315
sS'high_fuses'
p316
S'0xD8'
p317
sS'low_fuses'
p318
S'0xFF'
p319
sS'lock_bits'
p320
S'0x0F'
p321
sS'file'
p322
S'stk500boot_v2_mega2560.hex'
p323
sS'path'
p324
S'stk500v2'
p325
sS'unlock_bits'
p326
S'0x3F'
p327
ssS'name'
p328
S'Arduino Mega 2560 or Mega ADK'
p329
sS'upload'
p330
(dp331
S'speed'
p332
S'115200'
p333
sS'maximum_size'
p334
S'258048'
p335
sS'protocol'
p336
S'wiring'
p337
ssaa(lp338
S'mega'
p339
a(dp340
S'build'
p341
(dp342
S'core'
p343
S'arduino'
p344
sS'mcu'
p345
S'atmega1280'
p346
sS'f_cpu'
p347
S'16000000L'
p348
sS'variant'
p349
S'mega'
p350
ssS'bootloader'
p351
(dp352
S'extended_fuses'
p353
S'0xF5'
p354
sS'high_fuses'
p355
S'0xDA'
p356
sS'low_fuses'
p357
S'0xFF'
p358
sS'lock_bits'
p359
S'0x0F'
p360
sS'file'
p361
S'ATmegaBOOT_168_atmega1280.hex'
p362
sS'path'
p363
S'atmega'
p364
sS'unlock_bits'
p365
S'0x3F'
p366
ssS'name'
p367
S'Arduino Mega (ATmega1280)'
p368
sS'upload'
p369
(dp370
S'speed'
p371
S'57600'
p372
sS'maximum_size'
p373
S'126976'
p374
sS'protocol'
p375
S'arduino'
p376
ssaa(lp377
S'leonardo'
p378
a(dp379
S'build'
p380
(dp381
S'core'
p382
S'arduino'
p383
sS'f_cpu'
p384
S'16000000L'
p385
sS'vid'
p386
S'0x2341'
p387
sS'pid'
p388
S'0x8036'
p389
sS'variant'
p390
S'leonardo'
p391
sS'mcu'
p392
S'atmega32u4'
p393
ssS'bootloader'
p394
(dp395
S'extended_fuses'
p396
S'0xcb'
p397
sS'high_fuses'
p398
S'0xd8'
p399
sS'low_fuses'
p400
S'0xff'
p401
sS'lock_bits'
p402
S'0x2F'
p403
sS'file'
p404
S'Caterina-Leonardo.hex'
p405
sS'path'
p406
S'caterina'
p407
sS'unlock_bits'
p408
S'0x3F'
p409
ssS'name'
p410
S'Arduino Leonardo'
p411
sS'upload'
p412
(dp413
S'speed'
p414
S'57600'
p415
sS'maximum_size'
p416
S'28672'
p417
sS'protocol'
p418
S'avr109'
p419
sS'disable_flushing'
p420
S'true'
p421
ssaa(lp422
S'esplora'
p423
a(dp424
S'build'
p425
(dp426
S'core'
p427
S'arduino'
p428
sS'f_cpu'
p429
S'16000000L'
p430
sS'vid'
p431
S'0x2341'
p432
sS'pid'
p433
S'0x803C'
p434
sS'variant'
p435
S'leonardo'
p436
sS'mcu'
p437
S'atmega32u4'
p438
ssS'bootloader'
p439
(dp440
S'extended_fuses'
p441
S'0xcb'
p442
sS'high_fuses'
p443
S'0xd8'
p444
sS'low_fuses'
p445
S'0xff'
p446
sS'lock_bits'
p447
S'0x2F'
p448
sS'file'
p449
S'Caterina-Esplora.hex'
p450
sS'path'
p451
S'caterina'
p452
sS'unlock_bits'
p453
S'0x3F'
p454
ssS'name'
p455
S'Arduino Esplora'
p456
sS'upload'
p457
(dp458
S'speed'
p459
S'57600'
p460
sS'maximum_size'
p461
S'28672'
p462
sS'protocol'
p463
S'avr109'
p464
sS'disable_flushing'
p465
S'true'
p466
ssaa(lp467
S'micro'
p468
a(dp469
S'build'
p470
(dp471
S'core'
p472
S'arduino'
p473
sS'f_cpu'
p474
S'16000000L'
p475
sS'vid'
p476
S'0x2341'
p477
sS'pid'
p478
S'0x8037'
p479
sS'variant'
p480
S'micro'
p481
sS'mcu'
p482
S'atmega32u4'
p483
ssS'bootloader'
p484
(dp485
S'extended_fuses'
p486
S'0xcb'
p487
sS'high_fuses'
p488
S'0xd8'
p489
sS'low_fuses'
p490
S'0xff'
p491
sS'lock_bits'
p492
S'0x2F'
p493
sS'file'
p494
S'Caterina-Micro.hex'
p495
sS'path'
p496
S'caterina'
p497
sS'unlock_bits'
p498
S'0x3F'
p499
ssS'name'
p500
S'Arduino Micro'
p501
sS'upload'
p502
(dp503
S'speed'
p504
S'57600'
p505
sS'maximum_size'
p506
S'28672'
p507
sS'protocol'
p508
S'avr109'
p509
sS'disable_flushing'
p510
S'true'
p511
ssaa(lp512
S'mini328'
p513
a(dp514
S'build'
p515
(dp516
S'core'
p517
S'arduino'
p518
sS'mcu'
p519
S'atmega328p'
p520
sS'f_cpu'
p521
S'16000000L'
p522
sS'variant'
p523
S'eightanaloginputs'
p524
ssS'bootloader'
p525
(dp526
S'extended_fuses'
p527
S'0x05'
p528
sS'high_fuses'
p529
S'0xd8'
p530
sS'low_fuses'
p531
S'0xff'
p532
sS'lock_bits'
p533
S'0x0F'
p534
sS'file'
p535
S'optiboot_atmega328-Mini.hex'
p536
sS'path'
p537
S'optiboot'
p538
sS'unlock_bits'
p539
S'0x3F'
p540
ssS'name'
p541
S'Arduino Mini w/ ATmega328'
p542
sS'upload'
p543
(dp544
S'speed'
p545
S'115200'
p546
sS'maximum_size'
p547
S'28672'
p548
sS'protocol'
p549
S'arduino'
p550
ssaa(lp551
S'mini'
p552
a(dp553
S'build'
p554
(dp555
S'core'
p556
S'arduino'
p557
sS'mcu'
p558
S'atmega168'
p559
sS'f_cpu'
p560
S'16000000L'
p561
sS'variant'
p562
S'eightanaloginputs'
p563
ssS'bootloader'
p564
(dp565
S'extended_fuses'
p566
S'0x00'
p567
sS'high_fuses'
p568
S'0xdd'
p569
sS'low_fuses'
p570
S'0xff'
p571
sS'lock_bits'
p572
S'0x0F'
p573
sS'file'
p574
S'ATmegaBOOT_168_ng.hex'
p575
sS'path'
p576
S'atmega'
p577
sS'unlock_bits'
p578
S'0x3F'
p579
ssS'name'
p580
S'Arduino Mini w/ ATmega168'
p581
sS'upload'
p582
(dp583
S'speed'
p584
S'19200'
p585
sS'maximum_size'
p586
S'14336'
p587
sS'protocol'
p588
S'arduino'
p589
ssaa(lp590
S'ethernet'
p591
a(dp592
S'build'
p593
(dp594
S'f_cpu'
p595
S'16000000L'
p596
sS'mcu'
p597
S'atmega328p'
p598
sS'variant'
p599
S'standard'
p600
sS'core'
p601
S'arduino'
p602
ssS'bootloader'
p603
(dp604
S'extended_fuses'
p605
S'0x05'
p606
sS'high_fuses'
p607
S'0xde'
p608
sS'low_fuses'
p609
S'0xff'
p610
sS'lock_bits'
p611
S'0x0F'
p612
sS'file'
p613
S'optiboot_atmega328.hex'
p614
sS'path'
p615
S'optiboot'
p616
sS'unlock_bits'
p617
S'0x3F'
p618
ssS'name'
p619
S'Arduino Ethernet'
p620
sS'upload'
p621
(dp622
S'speed'
p623
S'115200'
p624
sS'maximum_size'
p625
S'32256'
p626
sS'protocol'
p627
S'arduino'
p628
ssaa(lp629
S'fio'
p630
a(dp631
S'build'
p632
(dp633
S'core'
p634
S'arduino'
p635
sS'mcu'
p636
S'atmega328p'
p637
sS'f_cpu'
p638
S'8000000L'
p639
sS'variant'
p640
S'eightanaloginputs'
p641
ssS'bootloader'
p642
(dp643
S'extended_fuses'
p644
S'0x05'
p645
sS'high_fuses'
p646
S'0xDA'
p647
sS'low_fuses'
p648
S'0xFF'
p649
sS'lock_bits'
p650
S'0x0F'
p651
sS'file'
p652
S'ATmegaBOOT_168_atmega328_pro_8MHz.hex'
p653
sS'path'
p654
S'arduino:atmega'
p655
sS'unlock_bits'
p656
S'0x3F'
p657
ssS'name'
p658
S'Arduino Fio'
p659
sS'upload'
p660
(dp661
S'speed'
p662
S'57600'
p663
sS'maximum_size'
p664
S'30720'
p665
sS'protocol'
p666
S'arduino'
p667
ssaa(lp668
S'bt328'
p669
a(dp670
S'build'
p671
(dp672
S'core'
p673
S'arduino'
p674
sS'mcu'
p675
S'atmega328p'
p676
sS'f_cpu'
p677
S'16000000L'
p678
sS'variant'
p679
S'eightanaloginputs'
p680
ssS'bootloader'
p681
(dp682
S'extended_fuses'
p683
S'0x05'
p684
sS'high_fuses'
p685
S'0xd8'
p686
sS'low_fuses'
p687
S'0xff'
p688
sS'lock_bits'
p689
S'0x0F'
p690
sS'file'
p691
S'ATmegaBOOT_168_atmega328_bt.hex'
p692
sS'path'
p693
S'bt'
p694
sS'unlock_bits'
p695
S'0x3F'
p696
ssS'name'
p697
S'Arduino BT w/ ATmega328'
p698
sS'upload'
p699
(dp700
S'speed'
p701
S'19200'
p702
sS'maximum_size'
p703
S'28672'
p704
sS'protocol'
p705
S'arduino'
p706
sS'disable_flushing'
p707
S'true'
p708
ssaa(lp709
S'bt'
p710
a(dp711
S'build'
p712
(dp713
S'core'
p714
S'arduino'
p715
sS'mcu'
p716
S'atmega168'
p717
sS'f_cpu'
p718
S'16000000L'
p719
sS'variant'
p720
S'eightanaloginputs'
p721
ssS'bootloader'
p722
(dp723
S'extended_fuses'
p724
S'0x00'
p725
sS'high_fuses'
p726
S'0xdd'
p727
sS'low_fuses'
p728
S'0xff'
p729
sS'lock_bits'
p730
S'0x0F'
p731
sS'file'
p732
S'ATmegaBOOT_168.hex'
p733
sS'path'
p734
S'bt'
p735
sS'unlock_bits'
p736
S'0x3F'
p737
ssS'name'
p738
S'Arduino BT w/ ATmega168'
p739
sS'upload'
p740
(dp741
S'speed'
p742
S'19200'
p743
sS'maximum_size'
p744
S'14336'
p745
sS'protocol'
p746
S'arduino'
p747
sS'disable_flushing'
p748
S'true'
p749
ssaa(lp750
S'LilyPadUSB'
p751
a(dp752
S'build'
p753
(dp754
S'core'
p755
S'arduino'
p756
sS'f_cpu'
p757
S'8000000L'
p758
sS'vid'
p759
S'0x1B4F'
p760
sS'pid'
p761
S'0x9208'
p762
sS'variant'
p763
S'leonardo'
p764
sS'mcu'
p765
S'atmega32u4'
p766
ssS'bootloader'
p767
(dp768
S'extended_fuses'
p769
S'0xce'
p770
sS'high_fuses'
p771
S'0xd8'
p772
sS'low_fuses'
p773
S'0xff'
p774
sS'lock_bits'
p775
S'0x2F'
p776
sS'file'
p777
S'Caterina-LilyPadUSB.hex'
p778
sS'path'
p779
S'caterina-LilyPadUSB'
p780
sS'unlock_bits'
p781
S'0x3F'
p782
ssS'name'
p783
S'LilyPad Arduino USB'
p784
sS'upload'
p785
(dp786
S'speed'
p787
S'57600'
p788
sS'maximum_size'
p789
S'28672'
p790
sS'protocol'
p791
S'avr109'
p792
sS'disable_flushing'
p793
S'true'
p794
ssaa(lp795
S'lilypad328'
p796
a(dp797
S'build'
p798
(dp799
S'core'
p800
S'arduino'
p801
sS'mcu'
p802
S'atmega328p'
p803
sS'f_cpu'
p804
S'8000000L'
p805
sS'variant'
p806
S'standard'
p807
ssS'bootloader'
p808
(dp809
S'extended_fuses'
p810
S'0x05'
p811
sS'high_fuses'
p812
S'0xDA'
p813
sS'low_fuses'
p814
S'0xFF'
p815
sS'lock_bits'
p816
S'0x0F'
p817
sS'file'
p818
S'ATmegaBOOT_168_atmega328_pro_8MHz.hex'
p819
sS'path'
p820
S'atmega'
p821
sS'unlock_bits'
p822
S'0x3F'
p823
ssS'name'
p824
S'LilyPad Arduino w/ ATmega328'
p825
sS'upload'
p826
(dp827
S'speed'
p828
S'57600'
p829
sS'maximum_size'
p830
S'30720'
p831
sS'protocol'
p832
S'arduino'
p833
ssaa(lp834
S'lilypad'
p835
a(dp836
S'build'
p837
(dp838
S'core'
p839
S'arduino'
p840
sS'mcu'
p841
S'atmega168'
p842
sS'f_cpu'
p843
S'8000000L'
p844
sS'variant'
p845
S'standard'
p846
ssS'bootloader'
p847
(dp848
S'extended_fuses'
p849
S'0x00'
p850
sS'high_fuses'
p851
S'0xdd'
p852
sS'low_fuses'
p853
S'0xe2'
p854
sS'lock_bits'
p855
S'0x0F'
p856
sS'file'
p857
S'LilyPadBOOT_168.hex'
p858
sS'path'
p859
S'lilypad'
p860
sS'unlock_bits'
p861
S'0x3F'
p862
ssS'name'
p863
S'LilyPad Arduino w/ ATmega168'
p864
sS'upload'
p865
(dp866
S'speed'
p867
S'19200'
p868
sS'maximum_size'
p869
S'14336'
p870
sS'protocol'
p871
S'arduino'
p872
ssaa(lp873
S'pro5v328'
p874
a(dp875
S'build'
p876
(dp877
S'core'
p878
S'arduino'
p879
sS'mcu'
p880
S'atmega328p'
p881
sS'f_cpu'
p882
S'16000000L'
p883
sS'variant'
p884
S'standard'
p885
ssS'bootloader'
p886
(dp887
S'extended_fuses'
p888
S'0x05'
p889
sS'high_fuses'
p890
S'0xDA'
p891
sS'low_fuses'
p892
S'0xFF'
p893
sS'lock_bits'
p894
S'0x0F'
p895
sS'file'
p896
S'ATmegaBOOT_168_atmega328.hex'
p897
sS'path'
p898
S'atmega'
p899
sS'unlock_bits'
p900
S'0x3F'
p901
ssS'name'
p902
S'Arduino Pro or Pro Mini (5V, 16 MHz) w/ ATmega328'
p903
sS'upload'
p904
(dp905
S'speed'
p906
S'57600'
p907
sS'maximum_size'
p908
S'30720'
p909
sS'protocol'
p910
S'arduino'
p911
ssaa(lp912
S'pro5v'
p913
a(dp914
S'build'
p915
(dp916
S'core'
p917
S'arduino'
p918
sS'mcu'
p919
S'atmega168'
p920
sS'f_cpu'
p921
S'16000000L'
p922
sS'variant'
p923
S'standard'
p924
ssS'bootloader'
p925
(dp926
S'extended_fuses'
p927
S'0x00'
p928
sS'high_fuses'
p929
S'0xdd'
p930
sS'low_fuses'
p931
S'0xff'
p932
sS'lock_bits'
p933
S'0x0F'
p934
sS'file'
p935
S'ATmegaBOOT_168_diecimila.hex'
p936
sS'path'
p937
S'atmega'
p938
sS'unlock_bits'
p939
S'0x3F'
p940
ssS'name'
p941
S'Arduino Pro or Pro Mini (5V, 16 MHz) w/ ATmega168'
p942
sS'upload'
p943
(dp944
S'speed'
p945
S'19200'
p946
sS'maximum_size'
p947
S'14336'
p948
sS'protocol'
p949
S'arduino'
p950
ssaa(lp951
S'pro328'
p952
a(dp953
S'build'
p954
(dp955
S'core'
p956
S'arduino'
p957
sS'mcu'
p958
S'atmega328p'
p959
sS'f_cpu'
p960
S'8000000L'
p961
sS'variant'
p962
S'standard'
p963
ssS'bootloader'
p964
(dp965
S'extended_fuses'
p966
S'0x05'
p967
sS'high_fuses'
p968
S'0xDA'
p969
sS'low_fuses'
p970
S'0xFF'
p971
sS'lock_bits'
p972
S'0x0F'
p973
sS'file'
p974
S'ATmegaBOOT_168_atmega328_pro_8MHz.hex'
p975
sS'path'
p976
S'atmega'
p977
sS'unlock_bits'
p978
S'0x3F'
p979
ssS'name'
p980
S'Arduino Pro or Pro Mini (3.3V, 8 MHz) w/ ATmega328'
p981
sS'upload'
p982
(dp983
S'speed'
p984
S'57600'
p985
sS'maximum_size'
p986
S'30720'
p987
sS'protocol'
p988
S'arduino'
p989
ssaa(lp990
S'pro'
p991
a(dp992
S'build'
p993
(dp994
S'core'
p995
S'arduino'
p996
sS'mcu'
p997
S'atmega168'
p998
sS'f_cpu'
p999
S'8000000L'
p1000
sS'variant'
p1001
S'standard'
p1002
ssS'bootloader'
p1003
(dp1004
S'extended_fuses'
p1005
S'0x00'
p1006
sS'high_fuses'
p1007
S'0xdd'
p1008
sS'low_fuses'
p1009
S'0xc6'
p1010
sS'lock_bits'
p1011
S'0x0F'
p1012
sS'file'
p1013
S'ATmegaBOOT_168_pro_8MHz.hex'
p1014
sS'path'
p1015
S'atmega'
p1016
sS'unlock_bits'
p1017
S'0x3F'
p1018
ssS'name'
p1019
S'Arduino Pro or Pro Mini (3.3V, 8 MHz) w/ ATmega168'
p1020
sS'upload'
p1021
(dp1022
S'speed'
p1023
S'19200'
p1024
sS'maximum_size'
p1025
S'14336'
p1026
sS'protocol'
p1027
S'arduino'
p1028
ssaa(lp1029
S'atmega168'
p1030
a(dp1031
S'build'
p1032
(dp1033
S'core'
p1034
S'arduino'
p1035
sS'mcu'
p1036
S'atmega168'
p1037
sS'f_cpu'
p1038
S'16000000L'
p1039
sS'variant'
p1040
S'standard'
p1041
ssS'bootloader'
p1042
(dp1043
S'extended_fuses'
p1044
S'0x00'
p1045
sS'high_fuses'
p1046
S'0xdd'
p1047
sS'low_fuses'
p1048
S'0xff'
p1049
sS'lock_bits'
p1050
S'0x0F'
p1051
sS'file'
p1052
S'ATmegaBOOT_168_ng.hex'
p1053
sS'path'
p1054
S'atmega'
p1055
sS'unlock_bits'
p1056
S'0x3F'
p1057
ssS'name'
p1058
S'Arduino NG or older w/ ATmega168'
p1059
sS'upload'
p1060
(dp1061
S'speed'
p1062
S'19200'
p1063
sS'maximum_size'
p1064
S'14336'
p1065
sS'protocol'
p1066
S'arduino'
p1067
ssaa(lp1068
S'atmega8'
p1069
a(dp1070
S'build'
p1071
(dp1072
S'core'
p1073
S'arduino'
p1074
sS'mcu'
p1075
S'atmega8'
p1076
sS'f_cpu'
p1077
S'16000000L'
p1078
sS'variant'
p1079
S'standard'
p1080
ssS'bootloader'
p1081
(dp1082
S'high_fuses'
p1083
S'0xca'
p1084
sS'low_fuses'
p1085
S'0xdf'
p1086
sS'lock_bits'
p1087
S'0x0F'
p1088
sS'file'
p1089
S'ATmegaBOOT-prod-firmware-2009-11-07.hex'
p1090
sS'path'
p1091
S'atmega8'
p1092
sS'unlock_bits'
p1093
S'0x3F'
p1094
ssS'name'
p1095
S'Arduino NG or older w/ ATmega8'
p1096
sS'upload'
p1097
(dp1098
S'speed'
p1099
S'19200'
p1100
sS'maximum_size'
p1101
S'7168'
p1102
sS'protocol'
p1103
S'arduino'
p1104
ssaatp1105
Rp1106
(dp1107
S'default'
p1108
S'uno'
p1109
sbtp1110
a(S'cxx'
p1111
S'/Applications/Arduino.app/Contents/Resources/Java/hardware/tools/avr/bin/avr-g++'
p1112
tp1113
a.